target datalayout = "e-m:e-p270:32:32-p271:32:32-p272:64:64-i64:64-i128:128-f80:128-n8:16:32:64-S128"
target triple = "x86_64-pc-linux-gnu"

%"class.sat::literal" = type { i32 }
%"class.smt::theory" = type <{ ptr, i32, [4 x i8], ptr, ptr, %class.ptr_vector, %class.svector, i32, i8, [3 x i8] }>
%class.ptr_vector = type { %class.vector }
%class.vector = type { ptr }
%class.svector = type { %class.vector.0 }
%class.vector.0 = type { ptr }
%class.ast = type { i32, i32, i32, i32 }
%class.obj_ref.106 = type { ptr, ptr }

@_ZN3smtL12true_literalE = internal global %"class.sat::literal" zeroinitializer, align 4
@_ZN3smtL13false_literalE = internal global %"class.sat::literal" zeroinitializer, align 4

; Function Attrs: mustprogress nounwind uwtable
define linkonce_odr hidden void @_ZN3ast7inc_refEv(ptr noundef nonnull align 4 dereferenceable(16) %0) #4 comdat align 2 {
  %2 = alloca ptr, align 8
  store ptr %0, ptr %2, align 8, !tbaa !95
  %3 = load ptr, ptr %2, align 8
  %4 = getelementptr inbounds nuw %class.ast, ptr %3, i32 0, i32 2
  %5 = load i32, ptr %4, align 4, !tbaa !710
  %6 = add i32 %5, 1
  store i32 %6, ptr %4, align 4, !tbaa !710
  ret void
}

; Function Attrs: mustprogress uwtable
define linkonce_odr hidden void @_ZN11ast_manager7inc_refEP3ast(ptr noundef nonnull align 8 dereferenceable(976) %0, ptr noundef %1) #6 comdat align 2 {
  %3 = alloca ptr, align 8
  %4 = alloca ptr, align 8
  store ptr %0, ptr %3, align 8, !tbaa !96
  store ptr %1, ptr %4, align 8, !tbaa !95
  %5 = load ptr, ptr %4, align 8, !tbaa !95
  %6 = icmp ne ptr %5, null
  br i1 %6, label %7, label %9

7:                                                ; preds = %2
  %8 = load ptr, ptr %4, align 8, !tbaa !95
  call void @_ZN3ast7inc_refEv(ptr noundef nonnull align 4 dereferenceable(16) %8)
  br label %9

9:                                                ; preds = %7, %2
  ret void
}

; Function Attrs: mustprogress uwtable
define linkonce_odr hidden void @_ZN7obj_refI3app11ast_managerE7inc_refEv(ptr noundef nonnull align 8 dereferenceable(16) %0) #6 comdat align 2 {
  %2 = alloca ptr, align 8
  store ptr %0, ptr %2, align 8, !tbaa !123
  %3 = load ptr, ptr %2, align 8
  %4 = getelementptr inbounds nuw %class.obj_ref.106, ptr %3, i32 0, i32 0
  %5 = load ptr, ptr %4, align 8, !tbaa !125
  %6 = icmp ne ptr %5, null
  br i1 %6, label %7, label %12

7:                                                ; preds = %1
  %8 = getelementptr inbounds nuw %class.obj_ref.106, ptr %3, i32 0, i32 1
  %9 = load ptr, ptr %8, align 8, !tbaa !779
  %10 = getelementptr inbounds nuw %class.obj_ref.106, ptr %3, i32 0, i32 0
  %11 = load ptr, ptr %10, align 8, !tbaa !125
  call void @_ZN11ast_manager7inc_refEP3ast(ptr noundef nonnull align 8 dereferenceable(976) %9, ptr noundef %11)
  br label %12

12:                                               ; preds = %7, %1
  ret void
}

; Function Attrs: mustprogress nounwind uwtable
define linkonce_odr hidden noundef ptr @_ZNK7obj_refI3app11ast_managerEcvPS0_Ev(ptr noundef nonnull align 8 dereferenceable(16) %0) #4 comdat align 2 {
  %2 = alloca ptr, align 8
  store ptr %0, ptr %2, align 8, !tbaa !123
  %3 = load ptr, ptr %2, align 8
  %4 = getelementptr inbounds nuw %class.obj_ref.106, ptr %3, i32 0, i32 0
  %5 = load ptr, ptr %4, align 8, !tbaa !125
  ret ptr %5
}

; Function Attrs: mustprogress uwtable
define linkonce_odr hidden void @_ZN7obj_refI3app11ast_managerEC2EPS0_RS1_(ptr noundef nonnull align 8 dereferenceable(16) %0, ptr noundef %1, ptr noundef nonnull align 8 dereferenceable(976) %2) unnamed_addr #6 comdat align 2 {
  %4 = alloca ptr, align 8
  %5 = alloca ptr, align 8
  %6 = alloca ptr, align 8
  store ptr %0, ptr %4, align 8, !tbaa !123
  store ptr %1, ptr %5, align 8, !tbaa !76
  store ptr %2, ptr %6, align 8, !tbaa !96
  %7 = load ptr, ptr %4, align 8
  %8 = getelementptr inbounds nuw %class.obj_ref.106, ptr %7, i32 0, i32 0
  %9 = load ptr, ptr %5, align 8, !tbaa !76
  store ptr %9, ptr %8, align 8, !tbaa !125
  %10 = getelementptr inbounds nuw %class.obj_ref.106, ptr %7, i32 0, i32 1
  %11 = load ptr, ptr %6, align 8, !tbaa !96
  store ptr %11, ptr %10, align 8, !tbaa !96
  call void @_ZN7obj_refI3app11ast_managerE7inc_refEv(ptr noundef nonnull align 8 dereferenceable(16) %7)
  ret void
}

; Function Attrs: mustprogress nounwind uwtable
define linkonce_odr hidden noundef nonnull align 8 dereferenceable(976) ptr @_ZNK3smt6theory11get_managerEv(ptr noundef nonnull align 8 dereferenceable(53) %0) #4 comdat align 2 {
  %2 = alloca ptr, align 8
  store ptr %0, ptr %2, align 8, !tbaa !28
  %3 = load ptr, ptr %2, align 8
  %4 = getelementptr inbounds nuw %"class.smt::theory", ptr %3, i32 0, i32 4
  %5 = load ptr, ptr %4, align 8, !tbaa !94
  ret ptr %5
}

; Function Attrs: mustprogress uwtable
define hidden i32 @_ZN3smt6theory5mk_eqEP4exprS2_b(ptr noundef nonnull align 8 dereferenceable(53) %0, ptr noundef %1, ptr noundef %2, i1 noundef zeroext %3) #6 align 2 personality ptr @__gxx_personality_v0 {
  %5 = alloca %"class.sat::literal", align 4
  %6 = alloca ptr, align 8
  %7 = alloca ptr, align 8
  %8 = alloca ptr, align 8
  %9 = alloca i8, align 1
  %10 = alloca %class.obj_ref.106, align 8
  %11 = alloca ptr, align 8
  %12 = alloca i32, align 4
  store ptr %0, ptr %6, align 8, !tbaa !28
  store ptr %1, ptr %7, align 8, !tbaa !105
  store ptr %2, ptr %8, align 8, !tbaa !105
  %13 = zext i1 %3 to i8
  store i8 %13, ptr %9, align 1, !tbaa !10
  %14 = load ptr, ptr %6, align 8
  %15 = load ptr, ptr %7, align 8, !tbaa !105
  %16 = load ptr, ptr %8, align 8, !tbaa !105
  %17 = icmp eq ptr %15, %16
  br i1 %17, label %18, label %19

18:                                               ; preds = %4
  call void @llvm.memcpy.p0.p0.i64(ptr align 4 %5, ptr align 4 @_ZN3smtL12true_literalE, i64 4, i1 false), !tbaa.struct !122
  br label %51

19:                                               ; preds = %4
  %20 = getelementptr inbounds nuw %"class.smt::theory", ptr %14, i32 0, i32 4
  %21 = load ptr, ptr %20, align 8, !tbaa !94
  %22 = load ptr, ptr %7, align 8, !tbaa !105
  %23 = load ptr, ptr %8, align 8, !tbaa !105
  %24 = call noundef zeroext i1 @_ZNK11ast_manager12are_distinctEP4exprS1_(ptr noundef nonnull align 8 dereferenceable(976) %21, ptr noundef %22, ptr noundef %23)
  br i1 %24, label %25, label %26

25:                                               ; preds = %19
  call void @llvm.memcpy.p0.p0.i64(ptr align 4 %5, ptr align 4 @_ZN3smtL13false_literalE, i64 4, i1 false), !tbaa.struct !122
  br label %51

26:                                               ; preds = %19
  call void @llvm.lifetime.start.p0(i64 16, ptr %10) #3
  %27 = getelementptr inbounds nuw %"class.smt::theory", ptr %14, i32 0, i32 3
  %28 = load ptr, ptr %27, align 8, !tbaa !120
  %29 = load ptr, ptr %7, align 8, !tbaa !105
  %30 = load ptr, ptr %8, align 8, !tbaa !105
  %31 = call noundef ptr @_ZN3smt7context10mk_eq_atomEP4exprS2_(ptr noundef nonnull align 8 dereferenceable(10544) %28, ptr noundef %29, ptr noundef %30)
  %32 = call noundef nonnull align 8 dereferenceable(976) ptr @_ZNK3smt6theory11get_managerEv(ptr noundef nonnull align 8 dereferenceable(53) %14)
  call void @_ZN7obj_refI3app11ast_managerEC2EPS0_RS1_(ptr noundef nonnull align 8 dereferenceable(16) %10, ptr noundef %31, ptr noundef nonnull align 8 dereferenceable(976) %32)
  %33 = getelementptr inbounds nuw %"class.smt::theory", ptr %14, i32 0, i32 3
  %34 = load ptr, ptr %33, align 8, !tbaa !120
  %35 = invoke noundef ptr @_ZNK7obj_refI3app11ast_managerEcvPS0_Ev(ptr noundef nonnull align 8 dereferenceable(16) %10)
          to label %36 unwind label %47

36:                                               ; preds = %26
  %37 = load i8, ptr %9, align 1, !tbaa !10, !range !12, !noundef !13
  %38 = trunc i8 %37 to i1
  invoke void @_ZN3smt7context11internalizeEP4exprb(ptr noundef nonnull align 8 dereferenceable(10544) %34, ptr noundef %35, i1 noundef zeroext %38)
          to label %39 unwind label %47

39:                                               ; preds = %36
  %40 = getelementptr inbounds nuw %"class.smt::theory", ptr %14, i32 0, i32 3
  %41 = load ptr, ptr %40, align 8, !tbaa !120
  %42 = invoke noundef ptr @_ZNK7obj_refI3app11ast_managerEcvPS0_Ev(ptr noundef nonnull align 8 dereferenceable(16) %10)
          to label %43 unwind label %47

43:                                               ; preds = %39
  %44 = invoke i32 @_ZNK3smt7context11get_literalEP4expr(ptr noundef nonnull align 8 dereferenceable(10544) %41, ptr noundef %42)
          to label %45 unwind label %47

45:                                               ; preds = %43
  %46 = getelementptr inbounds nuw %"class.sat::literal", ptr %5, i32 0, i32 0
  store i32 %44, ptr %46, align 4
  call void @_ZN7obj_refI3app11ast_managerED2Ev(ptr noundef nonnull align 8 dereferenceable(16) %10) #3
  call void @llvm.lifetime.end.p0(i64 16, ptr %10) #3
  br label %51

47:                                               ; preds = %43, %39, %36, %26
  %48 = landingpad { ptr, i32 }
          cleanup
  %49 = extractvalue { ptr, i32 } %48, 0
  store ptr %49, ptr %11, align 8
  %50 = extractvalue { ptr, i32 } %48, 1
  store i32 %50, ptr %12, align 4
  call void @_ZN7obj_refI3app11ast_managerED2Ev(ptr noundef nonnull align 8 dereferenceable(16) %10) #3
  call void @llvm.lifetime.end.p0(i64 16, ptr %10) #3
  br label %54

51:                                               ; preds = %45, %25, %18
  %52 = getelementptr inbounds nuw %"class.sat::literal", ptr %5, i32 0, i32 0
  %53 = load i32, ptr %52, align 4
  ret i32 %53

54:                                               ; preds = %47
  %55 = load ptr, ptr %11, align 8
  %56 = load i32, ptr %12, align 4
  %57 = insertvalue { ptr, i32 } poison, ptr %55, 0
  %58 = insertvalue { ptr, i32 } %57, i32 %56, 1
  resume { ptr, i32 } %58
}