; Function Attrs: mustprogress uwtable
define hidden i32 @_ZN3smt6theory5mk_eqEP4exprS2_b(ptr noundef nonnull readonly align 8 captures(none) dereferenceable(53) %0, ptr noundef %1, ptr noundef %2, i1 noundef zeroext %3) local_unnamed_addr #5 align 2 personality ptr @__gxx_personality_v0 {
  %5 = alloca %class.obj_ref.106, align 8
  %6 = icmp eq ptr %1, %2
  br i1 %6, label %7, label %8

7:                                                ; preds = %4
  %.sroa.0.0.copyload = load i32, ptr @_ZN3smtL12true_literalE, align 4, !tbaa !10
  br label %38

8:                                                ; preds = %4
  %9 = getelementptr inbounds nuw i8, ptr %0, i64 24
  %10 = load ptr, ptr %9, align 8, !tbaa !51
  %11 = tail call noundef zeroext i1 @_ZNK11ast_manager12are_distinctEP4exprS1_(ptr noundef nonnull align 8 dereferenceable(976) %10, ptr noundef %1, ptr noundef %2)
  br i1 %11, label %12, label %13

12:                                               ; preds = %8
  %.sroa.0.0.copyload9 = load i32, ptr @_ZN3smtL13false_literalE, align 4, !tbaa !10
  br label %38

13:                                               ; preds = %8
  call void @llvm.lifetime.start.p0(i64 16, ptr nonnull %5) #25
  %14 = getelementptr inbounds nuw i8, ptr %0, i64 16
  %15 = load ptr, ptr %14, align 8, !tbaa !76
  %16 = tail call noundef ptr @_ZN3smt7context10mk_eq_atomEP4exprS2_(ptr noundef nonnull align 8 dereferenceable(10544) %15, ptr noundef %1, ptr noundef %2)
  %17 = load ptr, ptr %9, align 8, !tbaa !51
  store ptr %16, ptr %5, align 8, !tbaa !80
  %18 = getelementptr inbounds nuw i8, ptr %5, i64 8
  store ptr %17, ptr %18, align 8, !tbaa !82
  %.not.i.i = icmp eq ptr %16, null
  br i1 %.not.i.i, label %_ZN7obj_refI3app11ast_managerEC2EPS0_RS1_.exit, label %_ZN11ast_manager7inc_refEP3ast.exit.i.i

_ZN11ast_manager7inc_refEP3ast.exit.i.i:          ; preds = %13
  %19 = getelementptr inbounds nuw i8, ptr %16, i64 8
  %20 = load i32, ptr %19, align 4, !tbaa !83
  %21 = add i32 %20, 1
  store i32 %21, ptr %19, align 4, !tbaa !83
  br label %_ZN7obj_refI3app11ast_managerEC2EPS0_RS1_.exit

_ZN7obj_refI3app11ast_managerEC2EPS0_RS1_.exit:   ; preds = %13, %_ZN11ast_manager7inc_refEP3ast.exit.i.i
  %22 = load ptr, ptr %14, align 8, !tbaa !76
  invoke void @_ZN3smt7context11internalizeEP4exprb(ptr noundef nonnull align 8 dereferenceable(10544) %22, ptr noundef %16, i1 noundef zeroext %3)
          to label %23 unwind label %36

23:                                               ; preds = %_ZN7obj_refI3app11ast_managerEC2EPS0_RS1_.exit
  %24 = load ptr, ptr %14, align 8, !tbaa !76
  %25 = invoke i32 @_ZNK3smt7context11get_literalEP4expr(ptr noundef nonnull align 8 dereferenceable(10544) %24, ptr noundef %16)
          to label %26 unwind label %36

26:                                               ; preds = %23
  br i1 %.not.i.i, label %_ZN7obj_refI3app11ast_managerED2Ev.exit, label %27

27:                                               ; preds = %26
  %28 = getelementptr inbounds nuw i8, ptr %16, i64 8
  %29 = load i32, ptr %28, align 4, !tbaa !83
  %30 = add i32 %29, -1
  store i32 %30, ptr %28, align 4, !tbaa !83
  %31 = icmp eq i32 %30, 0
  br i1 %31, label %32, label %_ZN7obj_refI3app11ast_managerED2Ev.exit

32:                                               ; preds = %27
  invoke void @_ZN11ast_manager11delete_nodeEP3ast(ptr noundef nonnull align 8 dereferenceable(976) %17, ptr noundef nonnull %16)
          to label %_ZN7obj_refI3app11ast_managerED2Ev.exit unwind label %33

33:                                               ; preds = %32
  %34 = landingpad { ptr, i32 }
          catch ptr null
  %35 = extractvalue { ptr, i32 } %34, 0
  tail call void @__clang_call_terminate(ptr %35) #26
  unreachable

_ZN7obj_refI3app11ast_managerED2Ev.exit:          ; preds = %26, %27, %32
  call void @llvm.lifetime.end.p0(i64 16, ptr nonnull %5) #25
  br label %38

36:                                               ; preds = %23, %_ZN7obj_refI3app11ast_managerEC2EPS0_RS1_.exit
  %37 = landingpad { ptr, i32 }
          cleanup
  call void @_ZN7obj_refI3app11ast_managerED2Ev(ptr noundef nonnull align 8 dereferenceable(16) %5) #25
  call void @llvm.lifetime.end.p0(i64 16, ptr nonnull %5) #25
  resume { ptr, i32 } %37

38:                                               ; preds = %_ZN7obj_refI3app11ast_managerED2Ev.exit, %12, %7
  %.sroa.0.0 = phi i32 [ %.sroa.0.0.copyload, %7 ], [ %.sroa.0.0.copyload9, %12 ], [ %25, %_ZN7obj_refI3app11ast_managerED2Ev.exit ]
  ret i32 %.sroa.0.0
}